; Function Attrs: mustprogress nofree norecurse nosync nounwind null_pointer_is_valid sspstrong willreturn memory(argmem: read) uwtable
define internal noundef nonnull ptr @eth_conv_get_filter_type(ptr noundef readonly captures(none) %0, i32 noundef %1) #4 {
  switch i32 %1, label %15 [
    i32 0, label %3
    i32 1, label %7
    i32 2, label %11
  ]

3:                                                ; preds = %2
  %4 = getelementptr inbounds nuw i8, ptr %0, i64 8
  %5 = load i32, ptr %4, align 8
  %6 = icmp eq i32 %5, 1
  br i1 %6, label %16, label %15

7:                                                ; preds = %2
  %8 = getelementptr inbounds nuw i8, ptr %0, i64 32
  %9 = load i32, ptr %8, align 8
  %10 = icmp eq i32 %9, 1
  br i1 %10, label %16, label %15

11:                                               ; preds = %2
  %12 = getelementptr inbounds nuw i8, ptr %0, i64 8
  %13 = load i32, ptr %12, align 8
  %14 = icmp eq i32 %13, 1
  br i1 %14, label %16, label %15

15:                                               ; preds = %7, %3, %2, %11
  br label %16

16:                                               ; preds = %11, %7, %3, %15
  %.0 = phi ptr [ @.str.163, %15 ], [ @.str.16, %3 ], [ @.str.4, %7 ], [ @.str.34, %11 ]
  ret ptr %.0
}